Certificate:
    Data:
        Version: 3 (0x2)
        Serial Number: 12917000030732603142 (0xb34267173b86cf06)
    Signature Algorithm: sha256WithRSAEncryption
        Issuer: C=US, ST=CA, L=Mountain View, O=Aerospike, Inc., OU=Engineering Test, CN=Root CA
        Validity
            Not Before: Jan 31 09:10:07 2018 GMT
            Not After : Jan 31 09:10:07 2038 GMT
        Subject: C=US, ST=CA, L=Mountain View, O=Aerospike, Inc., OU=Engineering Test, CN=Root CA
        Subject Public Key Info:
            Public Key Algorithm: rsaEncryption
                Public-Key: (2048 bit)
                Modulus:
                    00:aa:8e:dd:80:fc:4d:19:fe:f2:df:a6:3a:ed:e6:
                    01:12:6f:a6:f4:04:0e:f4:cc:da:d9:21:5f:84:9c:
                    38:82:9c:57:2e:01:db:0b:a2:aa:c4:dd:16:44:40:
                    91:3e:58:0d:57:14:7d:64:c0:84:cf:65:76:69:38:
                    4c:cf:f3:0b:ae:0e:2b:d3:63:ba:76:8f:00:32:3e:
                    08:b2:f7:5d:c2:68:f8:9f:02:ab:dc:25:ec:a0:d7:
                    94:5d:47:5b:b1:08:44:6e:9c:ef:b9:e1:ba:7a:d3:
                    0d:48:19:ee:ef:e8:79:e2:73:b4:70:30:89:0b:ff:
                    ad:66:c8:c1:f2:81:bd:f0:70:da:11:71:52:21:33:
                    78:b1:dc:23:ac:aa:e3:8f:1a:5d:4f:e1:98:b9:5c:
                    cb:e2:f3:60:8e:25:d9:de:9b:7f:83:17:a4:74:b4:
                    66:d8:27:02:56:86:74:78:df:58:34:28:0d:07:59:
                    39:85:20:7b:92:aa:c8:a2:ac:77:63:74:31:b1:81:
                    c2:ee:63:1c:f7:f9:8d:81:71:5e:f4:e8:a3:f0:3c:
                    bd:27:04:36:94:e7:a2:fc:2a:ee:3d:fb:1c:3d:87:
                    e4:dd:d5:dc:5c:03:d0:99:1b:fa:d3:d0:b0:81:92:
                    a9:0b:53:75:24:72:e4:75:85:d8:c1:cf:f2:f7:72:
                    ce:e5
                Exponent: 65537 (0x10001)
        X509v3 extensions:
            X509v3 Key Usage: critical
                Digital Signature, Certificate Sign, CRL Sign
            X509v3 Basic Constraints: critical
                CA:TRUE
            X509v3 Subject Key Identifier: 
                39:97:8C:52:44:2A:7E:66:F8:DF:35:FE:35:DE:66:D5:63:CB:DC:16
            X509v3 Authority Key Identifier: 
                keyid:39:97:8C:52:44:2A:7E:66:F8:DF:35:FE:35:DE:66:D5:63:CB:DC:16

    Signature Algorithm: sha256WithRSAEncryption
         98:21:7e:f6:27:39:ea:0a:2c:ee:40:b7:cb:79:c0:da:26:b5:
         5e:cd:10:9a:87:5b:58:0b:15:f9:1c:32:4b:cd:13:8a:fb:99:
         f3:da:e7:65:64:1b:31:2f:d1:ee:13:48:a6:66:2c:37:a6:1c:
         2f:68:e0:6c:a9:5c:f9:50:33:67:53:24:64:10:53:6f:a5:84:
         9c:3b:86:95:2c:ed:d6:38:43:71:75:7b:0d:ad:93:5f:23:11:
         71:b3:fb:59:4c:c5:5a:d5:25:67:f2:23:97:f7:be:31:39:9b:
         7a:cb:8f:c7:f3:d9:5d:8d:47:55:64:52:88:0e:01:c2:7f:1d:
         68:1c:53:db:a4:81:20:5d:a0:8e:ac:3b:c5:05:4f:7f:9b:8f:
         35:31:e2:c8:a8:b4:a8:b6:b8:45:7f:4a:17:73:a2:44:dd:0b:
         8d:68:8c:a8:22:2e:c3:ff:8c:10:d5:7a:3e:ac:5e:fb:3e:78:
         1c:2c:73:b4:77:62:de:c7:de:3d:41:6d:0b:94:b3:d5:55:41:
         86:82:4d:6c:e8:ec:a1:20:b6:cf:3b:89:4c:e8:9c:c2:05:f0:
         bc:4f:b8:50:06:8b:96:0e:1b:9f:42:f3:68:33:2e:95:dd:89:
         20:5d:31:82:97:d5:1b:79:05:9e:f2:25:8e:b1:bf:fa:66:fd:
         6f:2d:28:d9
-----BEGIN CERTIFICATE-----
MIID2DCCAsCgAwIBAgIJALNCZxc7hs8GMA0GCSqGSIb3DQEBCwUAMHkxCzAJBgNV
BAYTAlVTMQswCQYDVQQIDAJDQTEWMBQGA1UEBwwNTW91bnRhaW4gVmlldzEYMBYG
A1UECgwPQWVyb3NwaWtlLCBJbmMuMRkwFwYDVQQLDBBFbmdpbmVlcmluZyBUZXN0
MRAwDgYDVQQDDAdSb290IENBMB4XDTE4MDEzMTA5MTAwN1oXDTM4MDEzMTA5MTAw
N1oweTELMAkGA1UEBhMCVVMxCzAJBgNVBAgMAkNBMRYwFAYDVQQHDA1Nb3VudGFp
biBWaWV3MRgwFgYDVQQKDA9BZXJvc3Bpa2UsIEluYy4xGTAXBgNVBAsMEEVuZ2lu
ZWVyaW5nIFRlc3QxEDAOBgNVBAMMB1Jvb3QgQ0EwggEiMA0GCSqGSIb3DQEBAQUA
A4IBDwAwggEKAoIBAQCqjt2A/E0Z/vLfpjrt5gESb6b0BA70zNrZIV+EnDiCnFcu
AdsLoqrE3RZEQJE+WA1XFH1kwITPZXZpOEzP8wuuDivTY7p2jwAyPgiy913CaPif
AqvcJeyg15RdR1uxCERunO+54bp60w1IGe7v6Hnic7RwMIkL/61myMHygb3wcNoR
cVIhM3ix3COsquOPGl1P4Zi5XMvi82COJdnem3+DF6R0tGbYJwJWhnR431g0KA0H
WTmFIHuSqsiirHdjdDGxgcLuYxz3+Y2BcV706KPwPL0nBDaU56L8Ku49+xw9h+Td
1dxcA9CZG/rT0LCBkqkLU3UkcuR1hdjBz/L3cs7lAgMBAAGjYzBhMA4GA1UdDwEB
/wQEAwIBhjAPBgNVHRMBAf8EBTADAQH/MB0GA1UdDgQWBBQ5l4xSRCp+ZvjfNf41
3mbVY8vcFjAfBgNVHSMEGDAWgBQ5l4xSRCp+ZvjfNf413mbVY8vcFjANBgkqhkiG
9w0BAQsFAAOCAQEAmCF+9ic56gos7kC3y3nA2ia1Xs0QmodbWAsV+RwyS80TivuZ
89rnZWQbMS/R7hNIpmYsN6YcL2jgbKlc+VAzZ1MkZBBTb6WEnDuGlSzt1jhDcXV7
Da2TXyMRcbP7WUzFWtUlZ/Ijl/e+MTmbesuPx/PZXY1HVWRSiA4Bwn8daBxT26SB
IF2gjqw7xQVPf5uPNTHiyKi0qLa4RX9KF3OiRN0LjWiMqCIuw/+MENV6Pqxe+z54
HCxztHdi3sfePUFtC5Sz1VVBhoJNbOjsoSC2zzuJTOicwgXwvE+4UAaLlg4bn0Lz
aDMuld2JIF0xgpfVG3kFnvIljrG/+mb9by0o2Q==
-----END CERTIFICATE-----
