Certificate:
    Data:
        Version: 3 (0x2)
        Serial Number:
            a7:ba:30:8b:45:8b:62:1e:ba:71:ec:99:12:f4:25:f5
    Signature Algorithm: sha256WithRSAEncryption
        Issuer: C=US, ST=CA, O=Aerospike, Inc., OU=Engineering Test, CN=Chain Signing Cert
        Validity
            Not Before: Jan 31 09:10:08 2018 GMT
            Not After : Jan 30 09:10:08 2022 GMT
        Subject: C=US, ST=CA, O=Aerospike, Inc., OU=Test MultiServer, CN=cirya.aerospike.com
        Subject Public Key Info:
            Public Key Algorithm: rsaEncryption
                Public-Key: (2048 bit)
                Modulus:
                    00:aa:83:51:e9:3e:e6:44:43:69:09:80:69:5b:3e:
                    66:ac:f5:9f:29:50:be:d8:c9:ff:16:21:65:64:b9:
                    1d:1b:68:8a:88:ce:49:df:bc:59:c8:26:f4:7b:fa:
                    0c:01:17:48:20:01:f2:9c:4e:77:f4:f9:5c:02:06:
                    18:03:04:60:25:41:90:e2:d6:2c:10:27:90:e0:2e:
                    bd:17:8a:6f:62:39:ed:51:4b:20:25:6e:78:55:d6:
                    c3:77:26:28:70:9c:f9:c1:57:c1:1a:f5:50:6f:65:
                    80:2a:04:a2:46:0f:c7:7f:f9:7a:0b:79:19:3b:79:
                    e3:a9:03:57:1b:c8:d0:a9:77:cd:55:05:47:f4:ca:
                    a1:48:ad:ab:a2:4e:6c:b6:9f:c2:26:21:6f:9e:4b:
                    af:62:87:20:83:48:e6:07:fa:3f:2f:f9:6d:83:dc:
                    e2:ba:96:7c:f2:38:ee:7c:09:b5:46:af:e5:9b:fd:
                    8b:56:44:cc:c3:ae:97:18:ac:6a:b3:8c:e6:84:d7:
                    19:c3:a4:92:6e:0e:d2:92:1b:c2:d2:ca:c3:2e:27:
                    75:ad:08:2c:75:15:63:4a:e3:2a:71:34:7e:87:9f:
                    e6:ac:6d:62:cc:1d:8d:61:33:c2:f0:84:fe:8c:4a:
                    e9:c7:76:3a:90:e6:04:8e:50:27:58:b4:86:18:8b:
                    b0:ed
                Exponent: 65537 (0x10001)
        X509v3 extensions:
            X509v3 Authority Key Identifier: 
                keyid:E3:D3:AE:5F:C6:EF:1C:10:E5:FB:C5:E7:D2:34:7F:5E:93:D8:DC:62

            X509v3 Subject Key Identifier: 
                A9:66:60:05:09:4D:AA:9B:5A:27:98:B8:E9:59:26:01:C4:91:BB:12
            X509v3 Key Usage: critical
                Digital Signature, Key Encipherment
            X509v3 Extended Key Usage: 
                TLS Web Server Authentication, TLS Web Client Authentication
            X509v3 CRL Distribution Points: 

                Full Name:
                  URI:http://myhost.com/myca1.crl

                Full Name:
                  URI:http://myhost.com/myca2.crl

            X509v3 Certificate Policies: 
                Policy: 2.16.840.1.114412.1.1
                  CPS: https://myhost.com/CPS
                Policy: 2.23.140.1.2.2

            Authority Information Access: 
                OCSP - URI:http://ocsp.my.host/
                CA Issuers - URI:http://my.ca/ca.html

            X509v3 Basic Constraints: critical
                CA:FALSE
            X509v3 Subject Alternative Name: 
                DNS:cirya.aerospike.com
    Signature Algorithm: sha256WithRSAEncryption
         b6:22:46:1b:a8:fc:20:4b:ef:71:9f:40:7b:10:c0:7a:9f:68:
         4a:ce:a8:0a:93:0c:cb:ae:00:da:08:b7:b7:7f:3d:fb:a3:3c:
         85:7d:83:10:85:7b:f6:40:bb:33:36:2e:a1:1e:47:b4:2a:ed:
         c9:a9:d6:8d:79:ad:c2:d7:eb:e9:55:61:40:d6:f7:64:c5:7f:
         48:b9:1e:62:3b:84:d7:db:19:7a:ea:af:d2:c7:22:3b:40:7b:
         52:5b:9c:63:b6:55:2e:23:e3:83:ce:95:e0:85:b1:66:21:c3:
         e7:f6:5d:47:0f:2b:a1:57:77:9c:7f:f7:3a:11:6c:e1:62:55:
         75:54:ad:24:5f:90:f7:28:a8:fd:7e:54:01:96:73:2b:69:77:
         29:6d:54:e3:40:56:8b:e0:15:90:33:55:c3:2f:e2:83:39:9d:
         ce:b3:87:65:7a:ee:d5:a4:3a:14:52:67:67:01:f9:ec:78:6c:
         b1:e0:5d:08:d9:a6:17:39:16:4f:9c:13:9a:33:48:79:d8:fc:
         39:09:c0:74:ea:17:be:2e:d8:b8:ff:68:af:8b:90:d8:f4:29:
         b2:0a:d9:fd:24:c5:3b:a8:36:b4:61:56:81:d0:9d:19:37:36:
         3b:92:7b:e0:10:c9:34:8d:19:ed:c4:49:8d:60:01:3e:6b:c8:
         8d:a4:c5:1d
-----BEGIN CERTIFICATE-----
MIIE9DCCA9ygAwIBAgIRAKe6MItFi2IeunHsmRL0JfUwDQYJKoZIhvcNAQELBQAw
bDELMAkGA1UEBhMCVVMxCzAJBgNVBAgMAkNBMRgwFgYDVQQKDA9BZXJvc3Bpa2Us
IEluYy4xGTAXBgNVBAsMEEVuZ2luZWVyaW5nIFRlc3QxGzAZBgNVBAMMEkNoYWlu
IFNpZ25pbmcgQ2VydDAeFw0xODAxMzEwOTEwMDhaFw0yMjAxMzAwOTEwMDhaMG0x
CzAJBgNVBAYTAlVTMQswCQYDVQQIDAJDQTEYMBYGA1UECgwPQWVyb3NwaWtlLCBJ
bmMuMRkwFwYDVQQLDBBUZXN0IE11bHRpU2VydmVyMRwwGgYDVQQDDBNjaXJ5YS5h
ZXJvc3Bpa2UuY29tMIIBIjANBgkqhkiG9w0BAQEFAAOCAQ8AMIIBCgKCAQEAqoNR
6T7mRENpCYBpWz5mrPWfKVC+2Mn/FiFlZLkdG2iKiM5J37xZyCb0e/oMARdIIAHy
nE539PlcAgYYAwRgJUGQ4tYsECeQ4C69F4pvYjntUUsgJW54VdbDdyYocJz5wVfB
GvVQb2WAKgSiRg/Hf/l6C3kZO3njqQNXG8jQqXfNVQVH9MqhSK2rok5stp/CJiFv
nkuvYocgg0jmB/o/L/ltg9ziupZ88jjufAm1Rq/lm/2LVkTMw66XGKxqs4zmhNcZ
w6SSbg7SkhvC0srDLid1rQgsdRVjSuMqcTR+h5/mrG1izB2NYTPC8IT+jErpx3Y6
kOYEjlAnWLSGGIuw7QIDAQABo4IBjjCCAYowHwYDVR0jBBgwFoAU49OuX8bvHBDl
+8Xn0jR/XpPY3GIwHQYDVR0OBBYEFKlmYAUJTaqbWieYuOlZJgHEkbsSMA4GA1Ud
DwEB/wQEAwIFoDAdBgNVHSUEFjAUBggrBgEFBQcDAQYIKwYBBQUHAwIwTwYDVR0f
BEgwRjAhoB+gHYYbaHR0cDovL215aG9zdC5jb20vbXljYTEuY3JsMCGgH6Adhhto
dHRwOi8vbXlob3N0LmNvbS9teWNhMi5jcmwwRgYDVR0gBD8wPTAxBglghkgBhv1s
AQEwJDAiBggrBgEFBQcCARYWaHR0cHM6Ly9teWhvc3QuY29tL0NQUzAIBgZngQwB
AgIwUgYIKwYBBQUHAQEERjBEMCAGCCsGAQUFBzABhhRodHRwOi8vb2NzcC5teS5o
b3N0LzAgBggrBgEFBQcwAoYUaHR0cDovL215LmNhL2NhLmh0bWwwDAYDVR0TAQH/
BAIwADAeBgNVHREEFzAVghNjaXJ5YS5hZXJvc3Bpa2UuY29tMA0GCSqGSIb3DQEB
CwUAA4IBAQC2IkYbqPwgS+9xn0B7EMB6n2hKzqgKkwzLrgDaCLe3fz37ozyFfYMQ
hXv2QLszNi6hHke0Ku3JqdaNea3C1+vpVWFA1vdkxX9IuR5iO4TX2xl66q/SxyI7
QHtSW5xjtlUuI+ODzpXghbFmIcPn9l1HDyuhV3ecf/c6EWzhYlV1VK0kX5D3KKj9
flQBlnMraXcpbVTjQFaL4BWQM1XDL+KDOZ3Os4dleu7VpDoUUmdnAfnseGyx4F0I
2aYXORZPnBOaM0h52Pw5CcB06he+Lti4/2ivi5DY9CmyCtn9JMU7qDa0YVaB0J0Z
NzY7knvgEMk0jRntxEmNYAE+a8iNpMUd
-----END CERTIFICATE-----
Certificate:
    Data:
        Version: 3 (0x2)
        Serial Number:
            35:84:8e:96:43:f8:8c:77:eb:56:38:be:af:47:e1:3b
    Signature Algorithm: sha256WithRSAEncryption
        Issuer: C=US, ST=CA, L=Mountain View, O=Aerospike, Inc., OU=Engineering Test, CN=Root CA
        Validity
            Not Before: Jan 31 09:10:07 2018 GMT
            Not After : Jan 30 09:10:07 2022 GMT
        Subject: C=US, ST=CA, O=Aerospike, Inc., OU=Engineering Test, CN=Chain Signing Cert
        Subject Public Key Info:
            Public Key Algorithm: rsaEncryption
                Public-Key: (2048 bit)
                Modulus:
                    00:b8:a9:50:a3:fe:eb:91:68:ca:3b:1c:5c:93:66:
                    85:8e:3c:d4:55:7c:e7:c9:6f:89:f6:e3:47:ac:33:
                    ab:15:f4:bd:34:1b:ba:d8:45:2c:58:07:e3:08:9a:
                    dc:1c:eb:eb:42:f1:f6:13:4b:ed:85:c9:71:d1:41:
                    6c:a2:fa:36:37:93:73:39:29:57:d0:a6:30:7d:f8:
                    58:c8:67:f5:51:da:0c:44:fe:91:9f:1c:2d:a5:ab:
                    02:c0:35:b9:a2:e2:fd:06:3e:c5:bc:24:c1:13:2b:
                    0d:ee:22:eb:81:50:17:95:a1:7c:df:82:c5:ca:41:
                    4f:e3:de:a6:22:ed:ef:b5:88:18:47:d5:ec:fb:3c:
                    62:1f:8c:44:0a:19:e1:1d:5b:e0:fd:a8:53:70:c2:
                    8d:60:ac:bb:c8:4f:18:6f:60:5c:da:e1:d4:df:73:
                    43:2f:5b:79:f1:5d:00:70:af:45:58:fb:eb:79:c7:
                    6f:ed:a5:2d:da:2a:51:4f:a6:3d:2c:e6:1b:87:a2:
                    68:f0:b4:be:73:94:c7:f8:90:2f:ae:a2:06:25:84:
                    3e:7d:77:0a:1a:2b:62:fe:bb:79:dc:4e:f3:f1:dc:
                    ad:91:74:dc:73:10:8f:f5:47:ed:78:d8:0c:9c:f6:
                    8e:e3:6d:84:7c:6e:c2:84:2d:fd:d3:e3:86:c9:1f:
                    ff:b7
                Exponent: 65537 (0x10001)
        X509v3 extensions:
            X509v3 Basic Constraints: critical
                CA:TRUE, pathlen:0
            X509v3 Key Usage: critical
                Digital Signature, Key Encipherment, Certificate Sign, CRL Sign
            X509v3 Extended Key Usage: 
                TLS Web Server Authentication, TLS Web Client Authentication
            Authority Information Access: 
                OCSP - URI:http://ocsp.my.host/

            X509v3 CRL Distribution Points: 

                Full Name:
                  URI:http://myhost.com/myca.crl

            X509v3 Certificate Policies: 
                Policy: X509v3 Any Policy
                  CPS: https://myhost.com/CPS

            X509v3 Subject Key Identifier: 
                E3:D3:AE:5F:C6:EF:1C:10:E5:FB:C5:E7:D2:34:7F:5E:93:D8:DC:62
            X509v3 Authority Key Identifier: 
                keyid:39:97:8C:52:44:2A:7E:66:F8:DF:35:FE:35:DE:66:D5:63:CB:DC:16

    Signature Algorithm: sha256WithRSAEncryption
         78:c9:37:6f:75:ac:4c:a6:ae:46:e0:95:43:b1:8e:f5:87:52:
         9f:32:76:06:15:c9:c0:12:68:07:b4:70:7b:f1:2f:31:44:e1:
         cb:5e:2d:30:f3:59:66:0c:b8:b0:10:1d:9b:6f:b8:52:95:e3:
         a1:b2:71:85:b0:f4:56:96:5d:9f:dd:66:ca:3a:cb:e7:ff:49:
         ae:f6:f1:05:72:a5:17:a7:32:84:36:79:1b:ee:87:c3:f2:a8:
         8b:cf:07:5e:e2:7c:a6:06:af:99:b4:0b:9a:56:af:cd:91:ce:
         8f:9f:0e:f8:01:2e:e2:9d:e0:0e:71:c4:cc:51:64:61:90:ac:
         73:ed:eb:46:b2:3d:07:8a:a4:51:bb:a8:ab:66:8a:74:9e:51:
         6b:27:34:2c:cf:46:72:38:c4:5c:7d:75:5f:cd:b3:8e:ed:eb:
         2f:e2:25:bd:0a:25:cf:51:46:0e:59:d6:57:1d:e6:1d:0d:08:
         5c:bd:4c:f9:8c:b3:4e:4c:89:94:23:ae:90:4f:a2:84:33:a5:
         9e:06:dc:20:c9:35:7e:43:73:97:bc:ee:e5:b0:d1:54:82:92:
         35:1c:8f:6a:92:9d:c8:ed:b8:23:a5:5b:9c:64:66:d9:75:d7:
         7f:1a:e1:df:2a:5e:41:6f:49:0d:f3:b9:59:90:ca:53:23:bd:
         5b:0d:9b:16
-----BEGIN CERTIFICATE-----
MIIEkDCCA3igAwIBAgIQNYSOlkP4jHfrVji+r0fhOzANBgkqhkiG9w0BAQsFADB5
MQswCQYDVQQGEwJVUzELMAkGA1UECAwCQ0ExFjAUBgNVBAcMDU1vdW50YWluIFZp
ZXcxGDAWBgNVBAoMD0Flcm9zcGlrZSwgSW5jLjEZMBcGA1UECwwQRW5naW5lZXJp
bmcgVGVzdDEQMA4GA1UEAwwHUm9vdCBDQTAeFw0xODAxMzEwOTEwMDdaFw0yMjAx
MzAwOTEwMDdaMGwxCzAJBgNVBAYTAlVTMQswCQYDVQQIDAJDQTEYMBYGA1UECgwP
QWVyb3NwaWtlLCBJbmMuMRkwFwYDVQQLDBBFbmdpbmVlcmluZyBUZXN0MRswGQYD
VQQDDBJDaGFpbiBTaWduaW5nIENlcnQwggEiMA0GCSqGSIb3DQEBAQUAA4IBDwAw
ggEKAoIBAQC4qVCj/uuRaMo7HFyTZoWOPNRVfOfJb4n240esM6sV9L00G7rYRSxY
B+MImtwc6+tC8fYTS+2FyXHRQWyi+jY3k3M5KVfQpjB9+FjIZ/VR2gxE/pGfHC2l
qwLANbmi4v0GPsW8JMETKw3uIuuBUBeVoXzfgsXKQU/j3qYi7e+1iBhH1ez7PGIf
jEQKGeEdW+D9qFNwwo1grLvITxhvYFza4dTfc0MvW3nxXQBwr0VY++t5x2/tpS3a
KlFPpj0s5huHomjwtL5zlMf4kC+uogYlhD59dwoaK2L+u3ncTvPx3K2RdNxzEI/1
R+142Ayc9o7jbYR8bsKELf3T44bJH/+3AgMBAAGjggEfMIIBGzASBgNVHRMBAf8E
CDAGAQH/AgEAMA4GA1UdDwEB/wQEAwIBpjAdBgNVHSUEFjAUBggrBgEFBQcDAQYI
KwYBBQUHAwIwMAYIKwYBBQUHAQEEJDAiMCAGCCsGAQUFBzABhhRodHRwOi8vb2Nz
cC5teS5ob3N0LzArBgNVHR8EJDAiMCCgHqAchhpodHRwOi8vbXlob3N0LmNvbS9t
eWNhLmNybDA3BgNVHSAEMDAuMCwGBFUdIAAwJDAiBggrBgEFBQcCARYWaHR0cHM6
Ly9teWhvc3QuY29tL0NQUzAdBgNVHQ4EFgQU49OuX8bvHBDl+8Xn0jR/XpPY3GIw
HwYDVR0jBBgwFoAUOZeMUkQqfmb43zX+Nd5m1WPL3BYwDQYJKoZIhvcNAQELBQAD
ggEBAHjJN291rEymrkbglUOxjvWHUp8ydgYVycASaAe0cHvxLzFE4cteLTDzWWYM
uLAQHZtvuFKV46GycYWw9FaWXZ/dZso6y+f/Sa728QVypRenMoQ2eRvuh8PyqIvP
B17ifKYGr5m0C5pWr82Rzo+fDvgBLuKd4A5xxMxRZGGQrHPt60ayPQeKpFG7qKtm
inSeUWsnNCzPRnI4xFx9dV/Ns47t6y/iJb0KJc9RRg5Z1lcd5h0NCFy9TPmMs05M
iZQjrpBPooQzpZ4G3CDJNX5Dc5e87uWw0VSCkjUcj2qSncjtuCOlW5xkZtl1138a
4d8qXkFvSQ3zuVmQylMjvVsNmxY=
-----END CERTIFICATE-----
